target datalayout = "e-m:e-p270:32:32-p271:32:32-p272:64:64-i64:64-i128:128-f80:128-n8:16:32:64-S128"
target triple = "x86_64-pc-linux-gnu"

%class.StatementFilter = type { %class.Filter, ptr }
%class.Filter = type { ptr, %"class.std::bitset" }
%"class.std::bitset" = type { %"struct.std::_Base_bitset" }
%"struct.std::_Base_bitset" = type { i64 }

@_ZTV15StatementFilter = dso_local unnamed_addr constant { [5 x ptr] } { [5 x ptr] [ptr null, ptr @_ZTI15StatementFilter, ptr @_ZN15StatementFilterD1Ev, ptr @_ZN15StatementFilterD0Ev, ptr @_ZNK15StatementFilter6filterEi] }, align 8
@_ZN15StatementFilter19label_attr_generateE = dso_local global i8 0, align 1

; Function Attrs: mustprogress uwtable
define dso_local void @_ZN15StatementFilterC2ERK9CGContext(ptr noundef nonnull align 8 dereferenceable(24) %0, ptr noundef nonnull align 8 dereferenceable(216) %1) unnamed_addr #5 align 2 personality ptr @__gxx_personality_v0 {
  %3 = alloca ptr, align 8
  %4 = alloca ptr, align 8
  %5 = alloca ptr, align 8
  %6 = alloca i32, align 4
  store ptr %0, ptr %3, align 8
  store ptr %1, ptr %4, align 8
  %7 = load ptr, ptr %3, align 8
  call void @_ZN6FilterC2Ev(ptr noundef nonnull align 8 dereferenceable(16) %7)
  store ptr getelementptr inbounds ({ [5 x ptr] }, ptr @_ZTV15StatementFilter, i32 0, i32 0, i32 2), ptr %7, align 8
  %8 = getelementptr inbounds %class.StatementFilter, ptr %7, i32 0, i32 1
  %9 = load ptr, ptr %4, align 8
  store ptr %9, ptr %8, align 8
  %10 = load i8, ptr @_ZN15StatementFilter19label_attr_generateE, align 1
  %11 = trunc i8 %10 to i1
  br i1 %11, label %18, label %12

12:                                               ; preds = %2
  invoke void @_Z25InitializeLabelAttributesv()
          to label %13 unwind label %14

13:                                               ; preds = %12
  store i8 1, ptr @_ZN15StatementFilter19label_attr_generateE, align 1
  br label %18

14:                                               ; preds = %12
  %15 = landingpad { ptr, i32 }
          cleanup
  %16 = extractvalue { ptr, i32 } %15, 0
  store ptr %16, ptr %5, align 8
  %17 = extractvalue { ptr, i32 } %15, 1
  store i32 %17, ptr %6, align 4
  call void @_ZN6FilterD2Ev(ptr noundef nonnull align 8 dereferenceable(16) %7) #3
  br label %19

18:                                               ; preds = %13, %2
  ret void

19:                                               ; preds = %14
  %20 = load ptr, ptr %5, align 8
  %21 = load i32, ptr %6, align 4
  %22 = insertvalue { ptr, i32 } poison, ptr %20, 0
  %23 = insertvalue { ptr, i32 } %22, i32 %21, 1
  resume { ptr, i32 } %23
}