; Function Attrs: mustprogress uwtable
define dso_local void @_ZN15StatementFilterC2ERK9CGContext(ptr noundef nonnull align 8 dereferenceable(24) %0, ptr noundef nonnull align 8 dereferenceable(216) %1) unnamed_addr #4 align 2 personality ptr @__gxx_personality_v0 {
  tail call void @_ZN6FilterC2Ev(ptr noundef nonnull align 8 dereferenceable(16) %0)
  store ptr getelementptr inbounds ({ [5 x ptr] }, ptr @_ZTV15StatementFilter, i64 0, i32 0, i64 2), ptr %0, align 8
  %3 = getelementptr inbounds i8, ptr %0, i64 16
  store ptr %1, ptr %3, align 8
  %4 = load i8, ptr @_ZN15StatementFilter19label_attr_generateE, align 1
  %5 = and i8 %4, 1
  %.not = icmp eq i8 %5, 0
  br i1 %.not, label %6, label %10

6:                                                ; preds = %2
  invoke void @_Z25InitializeLabelAttributesv()
          to label %7 unwind label %8

7:                                                ; preds = %6
  store i8 1, ptr @_ZN15StatementFilter19label_attr_generateE, align 1
  br label %10

8:                                                ; preds = %6
  %9 = landingpad { ptr, i32 }
          cleanup
  tail call void @_ZN6FilterD2Ev(ptr noundef nonnull align 8 dereferenceable(16) %0) #24
  resume { ptr, i32 } %9

10:                                               ; preds = %7, %2
  ret void
}